target datalayout = "e-m:e-p270:32:32-p271:32:32-p272:64:64-i64:64-i128:128-f80:128-n8:16:32:64-S128"
target triple = "x86_64-unknown-linux-gnu"

%"struct.OpenImageIO_v2_6_0::TypeDesc" = type { i8, i8, i8, i8, i32 }
%"class.OpenImageIO_v2_6_0::ImageSpec" = type { i32, i32, i32, i32, i32, i32, i32, i32, i32, i32, i32, i32, i32, i32, i32, i32, %"struct.OpenImageIO_v2_6_0::TypeDesc", %"class.std::vector", %"class.std::vector.2", i32, i32, i8, %"class.OpenImageIO_v2_6_0::ParamValueList" }
%"class.std::vector" = type { %"struct.std::_Vector_base" }
%"struct.std::_Vector_base" = type { %"struct.std::_Vector_base<OpenImageIO_v2_6_0::TypeDesc, std::allocator<OpenImageIO_v2_6_0::TypeDesc>>::_Vector_impl" }
%"struct.std::_Vector_base<OpenImageIO_v2_6_0::TypeDesc, std::allocator<OpenImageIO_v2_6_0::TypeDesc>>::_Vector_impl" = type { %"struct.std::_Vector_base<OpenImageIO_v2_6_0::TypeDesc, std::allocator<OpenImageIO_v2_6_0::TypeDesc>>::_Vector_impl_data" }
%"struct.std::_Vector_base<OpenImageIO_v2_6_0::TypeDesc, std::allocator<OpenImageIO_v2_6_0::TypeDesc>>::_Vector_impl_data" = type { ptr, ptr, ptr }
%"class.std::vector.2" = type { %"struct.std::_Vector_base.3" }
%"struct.std::_Vector_base.3" = type { %"struct.std::_Vector_base<std::__cxx11::basic_string<char>, std::allocator<std::__cxx11::basic_string<char>>>::_Vector_impl" }
%"struct.std::_Vector_base<std::__cxx11::basic_string<char>, std::allocator<std::__cxx11::basic_string<char>>>::_Vector_impl" = type { %"struct.std::_Vector_base<std::__cxx11::basic_string<char>, std::allocator<std::__cxx11::basic_string<char>>>::_Vector_impl_data" }
%"struct.std::_Vector_base<std::__cxx11::basic_string<char>, std::allocator<std::__cxx11::basic_string<char>>>::_Vector_impl_data" = type { ptr, ptr, ptr }
%"class.OpenImageIO_v2_6_0::ParamValueList" = type { %"class.std::vector.7" }
%"class.std::vector.7" = type { %"struct.std::_Vector_base.8" }
%"struct.std::_Vector_base.8" = type { %"struct.std::_Vector_base<OpenImageIO_v2_6_0::ParamValue, std::allocator<OpenImageIO_v2_6_0::ParamValue>>::_Vector_impl" }
%"struct.std::_Vector_base<OpenImageIO_v2_6_0::ParamValue, std::allocator<OpenImageIO_v2_6_0::ParamValue>>::_Vector_impl" = type { %"struct.std::_Vector_base<OpenImageIO_v2_6_0::ParamValue, std::allocator<OpenImageIO_v2_6_0::ParamValue>>::_Vector_impl_data" }
%"struct.std::_Vector_base<OpenImageIO_v2_6_0::ParamValue, std::allocator<OpenImageIO_v2_6_0::ParamValue>>::_Vector_impl_data" = type { ptr, ptr, ptr }

@.str.8 = private unnamed_addr constant [64 x i8] c"read_native_deep_image is not supported for volume (3D) images.\00", align 1
@_ZN18OpenImageIO_v2_6_011TypeUnknownE = linkonce_odr hidden constant %"struct.OpenImageIO_v2_6_0::TypeDesc" { i8 0, i8 1, i8 0, i8 0, i32 0 }, comdat, align 4

; Function Attrs: mustprogress nounwind uwtable
define linkonce_odr noundef zeroext i1 @_ZNK18OpenImageIO_v2_6_08TypeDesceqERKS0_(ptr noundef nonnull align 4 dereferenceable(8) %this, ptr noundef nonnull align 4 dereferenceable(8) %t) #4 comdat align 2 {
entry:
  %this.addr = alloca ptr, align 8
  %t.addr = alloca ptr, align 8
  store ptr %this, ptr %this.addr, align 8
  store ptr %t, ptr %t.addr, align 8
  %this1 = load ptr, ptr %this.addr, align 8
  %basetype = getelementptr inbounds %"struct.OpenImageIO_v2_6_0::TypeDesc", ptr %this1, i32 0, i32 0
  %0 = load i8, ptr %basetype, align 4
  %conv = zext i8 %0 to i32
  %1 = load ptr, ptr %t.addr, align 8
  %basetype2 = getelementptr inbounds %"struct.OpenImageIO_v2_6_0::TypeDesc", ptr %1, i32 0, i32 0
  %2 = load i8, ptr %basetype2, align 4
  %conv3 = zext i8 %2 to i32
  %cmp = icmp eq i32 %conv, %conv3
  br i1 %cmp, label %land.lhs.true, label %land.end

land.lhs.true:                                    ; preds = %entry
  %aggregate = getelementptr inbounds %"struct.OpenImageIO_v2_6_0::TypeDesc", ptr %this1, i32 0, i32 1
  %3 = load i8, ptr %aggregate, align 1
  %conv4 = zext i8 %3 to i32
  %4 = load ptr, ptr %t.addr, align 8
  %aggregate5 = getelementptr inbounds %"struct.OpenImageIO_v2_6_0::TypeDesc", ptr %4, i32 0, i32 1
  %5 = load i8, ptr %aggregate5, align 1
  %conv6 = zext i8 %5 to i32
  %cmp7 = icmp eq i32 %conv4, %conv6
  br i1 %cmp7, label %land.lhs.true8, label %land.end

land.lhs.true8:                                   ; preds = %land.lhs.true
  %vecsemantics = getelementptr inbounds %"struct.OpenImageIO_v2_6_0::TypeDesc", ptr %this1, i32 0, i32 2
  %6 = load i8, ptr %vecsemantics, align 2
  %conv9 = zext i8 %6 to i32
  %7 = load ptr, ptr %t.addr, align 8
  %vecsemantics10 = getelementptr inbounds %"struct.OpenImageIO_v2_6_0::TypeDesc", ptr %7, i32 0, i32 2
  %8 = load i8, ptr %vecsemantics10, align 2
  %conv11 = zext i8 %8 to i32
  %cmp12 = icmp eq i32 %conv9, %conv11
  br i1 %cmp12, label %land.rhs, label %land.end

land.rhs:                                         ; preds = %land.lhs.true8
  %arraylen = getelementptr inbounds %"struct.OpenImageIO_v2_6_0::TypeDesc", ptr %this1, i32 0, i32 4
  %9 = load i32, ptr %arraylen, align 4
  %10 = load ptr, ptr %t.addr, align 8
  %arraylen13 = getelementptr inbounds %"struct.OpenImageIO_v2_6_0::TypeDesc", ptr %10, i32 0, i32 4
  %11 = load i32, ptr %arraylen13, align 4
  %cmp14 = icmp eq i32 %9, %11
  br label %land.end

land.end:                                         ; preds = %land.rhs, %land.lhs.true8, %land.lhs.true, %entry
  %12 = phi i1 [ false, %land.lhs.true8 ], [ false, %land.lhs.true ], [ false, %entry ], [ %cmp14, %land.rhs ]
  ret i1 %12
}

; Function Attrs: mustprogress nounwind uwtable
define linkonce_odr noundef zeroext i1 @_ZNK18OpenImageIO_v2_6_09ImageSpec9undefinedEv(ptr noundef nonnull align 8 dereferenceable(160) %this) #4 comdat align 2 {
entry:
  %this.addr = alloca ptr, align 8
  store ptr %this, ptr %this.addr, align 8
  %this1 = load ptr, ptr %this.addr, align 8
  %nchannels = getelementptr inbounds %"class.OpenImageIO_v2_6_0::ImageSpec", ptr %this1, i32 0, i32 15
  %0 = load i32, ptr %nchannels, align 4
  %cmp = icmp eq i32 %0, 0
  br i1 %cmp, label %land.rhs, label %land.end

land.rhs:                                         ; preds = %entry
  %format = getelementptr inbounds %"class.OpenImageIO_v2_6_0::ImageSpec", ptr %this1, i32 0, i32 16
  %call = call noundef zeroext i1 @_ZNK18OpenImageIO_v2_6_08TypeDesceqERKS0_(ptr noundef nonnull align 4 dereferenceable(8) %format, ptr noundef nonnull align 4 dereferenceable(8) @_ZN18OpenImageIO_v2_6_011TypeUnknownE) #3
  br label %land.end

land.end:                                         ; preds = %land.rhs, %entry
  %1 = phi i1 [ false, %entry ], [ %call, %land.rhs ]
  ret i1 %1
}

; Function Attrs: mustprogress uwtable
define noundef zeroext i1 @_ZN18OpenImageIO_v2_6_010ImageInput22read_native_deep_imageEiiRNS_8DeepDataE(ptr noundef nonnull align 8 dereferenceable(184) %this, i32 noundef %subimage, i32 noundef %miplevel, ptr noundef nonnull align 8 dereferenceable(20) %deepdata) unnamed_addr #6 align 2 personality ptr @__gxx_personality_v0 {
entry:
  %retval = alloca i1, align 1
  %this.addr = alloca ptr, align 8
  %subimage.addr = alloca i32, align 4
  %miplevel.addr = alloca i32, align 4
  %deepdata.addr = alloca ptr, align 8
  %spec = alloca %"class.OpenImageIO_v2_6_0::ImageSpec", align 8
  %cleanup.dest.slot = alloca i32, align 4
  %exn.slot = alloca ptr, align 8
  %ehselector.slot = alloca i32, align 4
  store ptr %this, ptr %this.addr, align 8
  store i32 %subimage, ptr %subimage.addr, align 4
  store i32 %miplevel, ptr %miplevel.addr, align 4
  store ptr %deepdata, ptr %deepdata.addr, align 8
  %this1 = load ptr, ptr %this.addr, align 8
  %0 = load i32, ptr %subimage.addr, align 4
  %1 = load i32, ptr %miplevel.addr, align 4
  %vtable = load ptr, ptr %this1, align 8
  %vfn = getelementptr inbounds ptr, ptr %vtable, i64 10
  %2 = load ptr, ptr %vfn, align 8
  call void %2(ptr sret(%"class.OpenImageIO_v2_6_0::ImageSpec") align 8 %spec, ptr noundef nonnull align 8 dereferenceable(184) %this1, i32 noundef %0, i32 noundef %1)
  %call = call noundef zeroext i1 @_ZNK18OpenImageIO_v2_6_09ImageSpec9undefinedEv(ptr noundef nonnull align 8 dereferenceable(160) %spec) #3
  br i1 %call, label %if.then, label %if.end

if.then:                                          ; preds = %entry
  store i1 false, ptr %retval, align 1
  store i32 1, ptr %cleanup.dest.slot, align 4
  br label %cleanup

if.end:                                           ; preds = %entry
  %depth = getelementptr inbounds %"class.OpenImageIO_v2_6_0::ImageSpec", ptr %spec, i32 0, i32 5
  %3 = load i32, ptr %depth, align 4
  %cmp = icmp sgt i32 %3, 1
  br i1 %cmp, label %if.then2, label %if.end3

if.then2:                                         ; preds = %if.end
  invoke void @_ZNK18OpenImageIO_v2_6_010ImageInput6errorfIJEEEvPKcDpRKT_(ptr noundef nonnull align 8 dereferenceable(184) %this1, ptr noundef @.str.8)
          to label %invoke.cont unwind label %lpad

invoke.cont:                                      ; preds = %if.then2
  store i1 false, ptr %retval, align 1
  store i32 1, ptr %cleanup.dest.slot, align 4
  br label %cleanup

lpad:                                             ; preds = %if.else, %if.then4, %if.then2
  %4 = landingpad { ptr, i32 }
          cleanup
  %5 = extractvalue { ptr, i32 } %4, 0
  store ptr %5, ptr %exn.slot, align 8
  %6 = extractvalue { ptr, i32 } %4, 1
  store i32 %6, ptr %ehselector.slot, align 4
  call void @_ZN18OpenImageIO_v2_6_09ImageSpecD2Ev(ptr noundef nonnull align 8 dereferenceable(160) %spec) #3
  br label %eh.resume

if.end3:                                          ; preds = %if.end
  %tile_width = getelementptr inbounds %"class.OpenImageIO_v2_6_0::ImageSpec", ptr %spec, i32 0, i32 12
  %7 = load i32, ptr %tile_width, align 8
  %tobool = icmp ne i32 %7, 0
  br i1 %tobool, label %if.then4, label %if.else

if.then4:                                         ; preds = %if.end3
  %8 = load i32, ptr %subimage.addr, align 4
  %9 = load i32, ptr %miplevel.addr, align 4
  %x = getelementptr inbounds %"class.OpenImageIO_v2_6_0::ImageSpec", ptr %spec, i32 0, i32 0
  %10 = load i32, ptr %x, align 8
  %x5 = getelementptr inbounds %"class.OpenImageIO_v2_6_0::ImageSpec", ptr %spec, i32 0, i32 0
  %11 = load i32, ptr %x5, align 8
  %width = getelementptr inbounds %"class.OpenImageIO_v2_6_0::ImageSpec", ptr %spec, i32 0, i32 3
  %12 = load i32, ptr %width, align 4
  %add = add nsw i32 %11, %12
  %y = getelementptr inbounds %"class.OpenImageIO_v2_6_0::ImageSpec", ptr %spec, i32 0, i32 1
  %13 = load i32, ptr %y, align 4
  %y6 = getelementptr inbounds %"class.OpenImageIO_v2_6_0::ImageSpec", ptr %spec, i32 0, i32 1
  %14 = load i32, ptr %y6, align 4
  %height = getelementptr inbounds %"class.OpenImageIO_v2_6_0::ImageSpec", ptr %spec, i32 0, i32 4
  %15 = load i32, ptr %height, align 8
  %add7 = add nsw i32 %14, %15
  %z = getelementptr inbounds %"class.OpenImageIO_v2_6_0::ImageSpec", ptr %spec, i32 0, i32 2
  %16 = load i32, ptr %z, align 8
  %z8 = getelementptr inbounds %"class.OpenImageIO_v2_6_0::ImageSpec", ptr %spec, i32 0, i32 2
  %17 = load i32, ptr %z8, align 8
  %depth9 = getelementptr inbounds %"class.OpenImageIO_v2_6_0::ImageSpec", ptr %spec, i32 0, i32 5
  %18 = load i32, ptr %depth9, align 4
  %add10 = add nsw i32 %17, %18
  %nchannels = getelementptr inbounds %"class.OpenImageIO_v2_6_0::ImageSpec", ptr %spec, i32 0, i32 15
  %19 = load i32, ptr %nchannels, align 4
  %20 = load ptr, ptr %deepdata.addr, align 8
  %vtable11 = load ptr, ptr %this1, align 8
  %vfn12 = getelementptr inbounds ptr, ptr %vtable11, i64 24
  %21 = load ptr, ptr %vfn12, align 8
  %call14 = invoke noundef zeroext i1 %21(ptr noundef nonnull align 8 dereferenceable(184) %this1, i32 noundef %8, i32 noundef %9, i32 noundef %10, i32 noundef %add, i32 noundef %13, i32 noundef %add7, i32 noundef %16, i32 noundef %add10, i32 noundef 0, i32 noundef %19, ptr noundef nonnull align 8 dereferenceable(20) %20)
          to label %invoke.cont13 unwind label %lpad

invoke.cont13:                                    ; preds = %if.then4
  store i1 %call14, ptr %retval, align 1
  store i32 1, ptr %cleanup.dest.slot, align 4
  br label %cleanup

if.else:                                          ; preds = %if.end3
  %22 = load i32, ptr %subimage.addr, align 4
  %23 = load i32, ptr %miplevel.addr, align 4
  %y15 = getelementptr inbounds %"class.OpenImageIO_v2_6_0::ImageSpec", ptr %spec, i32 0, i32 1
  %24 = load i32, ptr %y15, align 4
  %y16 = getelementptr inbounds %"class.OpenImageIO_v2_6_0::ImageSpec", ptr %spec, i32 0, i32 1
  %25 = load i32, ptr %y16, align 4
  %height17 = getelementptr inbounds %"class.OpenImageIO_v2_6_0::ImageSpec", ptr %spec, i32 0, i32 4
  %26 = load i32, ptr %height17, align 8
  %add18 = add nsw i32 %25, %26
  %nchannels19 = getelementptr inbounds %"class.OpenImageIO_v2_6_0::ImageSpec", ptr %spec, i32 0, i32 15
  %27 = load i32, ptr %nchannels19, align 4
  %28 = load ptr, ptr %deepdata.addr, align 8
  %vtable20 = load ptr, ptr %this1, align 8
  %vfn21 = getelementptr inbounds ptr, ptr %vtable20, i64 23
  %29 = load ptr, ptr %vfn21, align 8
  %call23 = invoke noundef zeroext i1 %29(ptr noundef nonnull align 8 dereferenceable(184) %this1, i32 noundef %22, i32 noundef %23, i32 noundef %24, i32 noundef %add18, i32 noundef 0, i32 noundef 0, i32 noundef %27, ptr noundef nonnull align 8 dereferenceable(20) %28)
          to label %invoke.cont22 unwind label %lpad

invoke.cont22:                                    ; preds = %if.else
  store i1 %call23, ptr %retval, align 1
  store i32 1, ptr %cleanup.dest.slot, align 4
  br label %cleanup

cleanup:                                          ; preds = %invoke.cont22, %invoke.cont13, %invoke.cont, %if.then
  call void @_ZN18OpenImageIO_v2_6_09ImageSpecD2Ev(ptr noundef nonnull align 8 dereferenceable(160) %spec) #3
  %30 = load i1, ptr %retval, align 1
  ret i1 %30

eh.resume:                                        ; preds = %lpad
  %exn = load ptr, ptr %exn.slot, align 8
  %sel = load i32, ptr %ehselector.slot, align 4
  %lpad.val = insertvalue { ptr, i32 } poison, ptr %exn, 0
  %lpad.val24 = insertvalue { ptr, i32 } %lpad.val, i32 %sel, 1
  resume { ptr, i32 } %lpad.val24
}