; Function Attrs: mustprogress uwtable
define noundef zeroext i1 @_ZN18OpenImageIO_v2_6_010ImageInput22read_native_deep_imageEiiRNS_8DeepDataE(ptr noundef nonnull align 8 dereferenceable(184) %this, i32 noundef %subimage, i32 noundef %miplevel, ptr noundef nonnull align 8 dereferenceable(20) %deepdata) unnamed_addr #5 align 2 personality ptr @__gxx_personality_v0 {
entry:
  %spec = alloca %"class.OpenImageIO_v2_6_0::ImageSpec", align 8
  %vtable = load ptr, ptr %this, align 8
  %vfn = getelementptr inbounds i8, ptr %vtable, i64 80
  %0 = load ptr, ptr %vfn, align 8
  call void %0(ptr nonnull sret(%"class.OpenImageIO_v2_6_0::ImageSpec") align 8 %spec, ptr noundef nonnull align 8 dereferenceable(184) %this, i32 noundef %subimage, i32 noundef %miplevel)
  %nchannels.i = getelementptr inbounds i8, ptr %spec, i64 60
  %1 = load i32, ptr %nchannels.i, align 4
  %cmp.i = icmp eq i32 %1, 0
  br i1 %cmp.i, label %land.rhs.i, label %if.end

land.rhs.i:                                       ; preds = %entry
  %format.i = getelementptr inbounds i8, ptr %spec, i64 64
  %2 = load i8, ptr %format.i, align 8
  %cmp.i.i = icmp eq i8 %2, 0
  %aggregate.i.i = getelementptr inbounds i8, ptr %spec, i64 65
  %3 = load i8, ptr %aggregate.i.i, align 1
  %cmp7.i.i = icmp eq i8 %3, 1
  %or.cond.i = select i1 %cmp.i.i, i1 %cmp7.i.i, i1 false
  %vecsemantics.i.i = getelementptr inbounds i8, ptr %spec, i64 66
  %4 = load i8, ptr %vecsemantics.i.i, align 2
  %cmp12.i.i = icmp eq i8 %4, 0
  %or.cond1.i = select i1 %or.cond.i, i1 %cmp12.i.i, i1 false
  %arraylen.i.i = getelementptr inbounds i8, ptr %spec, i64 68
  %5 = load i32, ptr %arraylen.i.i, align 4
  %cmp14.i.i = icmp eq i32 %5, 0
  %or.cond = select i1 %or.cond1.i, i1 %cmp14.i.i, i1 false
  br i1 %or.cond, label %cleanup, label %if.end

if.end:                                           ; preds = %land.rhs.i, %entry
  %depth = getelementptr inbounds i8, ptr %spec, i64 20
  %6 = load i32, ptr %depth, align 4
  %cmp = icmp sgt i32 %6, 1
  br i1 %cmp, label %if.then2, label %if.end3

if.then2:                                         ; preds = %if.end
  invoke void @_ZNK18OpenImageIO_v2_6_010ImageInput6errorfIJEEEvPKcDpRKT_(ptr noundef nonnull align 8 dereferenceable(184) %this, ptr noundef nonnull @.str.8)
          to label %cleanup unwind label %lpad

lpad:                                             ; preds = %if.else, %if.then4, %if.then2
  %7 = landingpad { ptr, i32 }
          cleanup
  call void @_ZN18OpenImageIO_v2_6_09ImageSpecD2Ev(ptr noundef nonnull align 8 dereferenceable(160) %spec) #26
  resume { ptr, i32 } %7

if.end3:                                          ; preds = %if.end
  %tile_width = getelementptr inbounds i8, ptr %spec, i64 48
  %8 = load i32, ptr %tile_width, align 8
  %tobool.not = icmp eq i32 %8, 0
  br i1 %tobool.not, label %if.else, label %if.then4

if.then4:                                         ; preds = %if.end3
  %9 = load i32, ptr %spec, align 8
  %width = getelementptr inbounds i8, ptr %spec, i64 12
  %10 = load i32, ptr %width, align 4
  %add = add nsw i32 %10, %9
  %y = getelementptr inbounds i8, ptr %spec, i64 4
  %11 = load i32, ptr %y, align 4
  %height = getelementptr inbounds i8, ptr %spec, i64 16
  %12 = load i32, ptr %height, align 8
  %add7 = add nsw i32 %12, %11
  %z = getelementptr inbounds i8, ptr %spec, i64 8
  %13 = load i32, ptr %z, align 8
  %add10 = add nsw i32 %13, %6
  %vtable11 = load ptr, ptr %this, align 8
  %vfn12 = getelementptr inbounds i8, ptr %vtable11, i64 192
  %14 = load ptr, ptr %vfn12, align 8
  %call14 = invoke noundef zeroext i1 %14(ptr noundef nonnull align 8 dereferenceable(184) %this, i32 noundef %subimage, i32 noundef %miplevel, i32 noundef %9, i32 noundef %add, i32 noundef %11, i32 noundef %add7, i32 noundef %13, i32 noundef %add10, i32 noundef 0, i32 noundef %1, ptr noundef nonnull align 8 dereferenceable(20) %deepdata)
          to label %cleanup unwind label %lpad

if.else:                                          ; preds = %if.end3
  %y15 = getelementptr inbounds i8, ptr %spec, i64 4
  %15 = load i32, ptr %y15, align 4
  %height17 = getelementptr inbounds i8, ptr %spec, i64 16
  %16 = load i32, ptr %height17, align 8
  %add18 = add nsw i32 %16, %15
  %vtable20 = load ptr, ptr %this, align 8
  %vfn21 = getelementptr inbounds i8, ptr %vtable20, i64 184
  %17 = load ptr, ptr %vfn21, align 8
  %call23 = invoke noundef zeroext i1 %17(ptr noundef nonnull align 8 dereferenceable(184) %this, i32 noundef %subimage, i32 noundef %miplevel, i32 noundef %15, i32 noundef %add18, i32 noundef 0, i32 noundef 0, i32 noundef %1, ptr noundef nonnull align 8 dereferenceable(20) %deepdata)
          to label %cleanup unwind label %lpad

cleanup:                                          ; preds = %land.rhs.i, %if.else, %if.then4, %if.then2
  %retval.0 = phi i1 [ false, %if.then2 ], [ %call14, %if.then4 ], [ %call23, %if.else ], [ false, %land.rhs.i ]
  %extra_attribs.i = getelementptr inbounds i8, ptr %spec, i64 136
  %18 = load ptr, ptr %extra_attribs.i, align 8
  %_M_finish.i.i.i = getelementptr inbounds i8, ptr %spec, i64 144
  %19 = load ptr, ptr %_M_finish.i.i.i, align 8
  %cmp.not3.i.i.i.i.i.i = icmp eq ptr %18, %19
  br i1 %cmp.not3.i.i.i.i.i.i, label %invoke.cont.i.i.i, label %for.body.i.i.i.i.i.i

for.body.i.i.i.i.i.i:                             ; preds = %cleanup, %for.body.i.i.i.i.i.i
  %__first.addr.04.i.i.i.i.i.i = phi ptr [ %incdec.ptr.i.i.i.i.i.i, %for.body.i.i.i.i.i.i ], [ %18, %cleanup ]
  call void @_ZN18OpenImageIO_v2_6_010ParamValue11clear_valueEv(ptr noundef nonnull align 8 dereferenceable(39) %__first.addr.04.i.i.i.i.i.i) #26
  %incdec.ptr.i.i.i.i.i.i = getelementptr inbounds i8, ptr %__first.addr.04.i.i.i.i.i.i, i64 40
  %cmp.not.i.i.i.i.i.i = icmp eq ptr %incdec.ptr.i.i.i.i.i.i, %19
  br i1 %cmp.not.i.i.i.i.i.i, label %invoke.contthread-pre-split.i.i.i, label %for.body.i.i.i.i.i.i, !llvm.loop !4

invoke.contthread-pre-split.i.i.i:                ; preds = %for.body.i.i.i.i.i.i
  %.pr.i.i.i = load ptr, ptr %extra_attribs.i, align 8
  br label %invoke.cont.i.i.i

invoke.cont.i.i.i:                                ; preds = %invoke.contthread-pre-split.i.i.i, %cleanup
  %20 = phi ptr [ %.pr.i.i.i, %invoke.contthread-pre-split.i.i.i ], [ %18, %cleanup ]
  %tobool.not.i.i.i.i.i = icmp eq ptr %20, null
  br i1 %tobool.not.i.i.i.i.i, label %_ZN18OpenImageIO_v2_6_014ParamValueListD2Ev.exit.i, label %if.then.i.i.i.i.i

if.then.i.i.i.i.i:                                ; preds = %invoke.cont.i.i.i
  call void @_ZdlPv(ptr noundef nonnull %20) #27
  br label %_ZN18OpenImageIO_v2_6_014ParamValueListD2Ev.exit.i

_ZN18OpenImageIO_v2_6_014ParamValueListD2Ev.exit.i: ; preds = %if.then.i.i.i.i.i, %invoke.cont.i.i.i
  %channelnames.i = getelementptr inbounds i8, ptr %spec, i64 96
  %21 = load ptr, ptr %channelnames.i, align 8
  %_M_finish.i.i = getelementptr inbounds i8, ptr %spec, i64 104
  %22 = load ptr, ptr %_M_finish.i.i, align 8
  %cmp.not3.i.i.i.i.i = icmp eq ptr %21, %22
  br i1 %cmp.not3.i.i.i.i.i, label %invoke.cont.i.i, label %for.body.i.i.i.i.i

for.body.i.i.i.i.i:                               ; preds = %_ZN18OpenImageIO_v2_6_014ParamValueListD2Ev.exit.i, %for.body.i.i.i.i.i
  %__first.addr.04.i.i.i.i.i = phi ptr [ %incdec.ptr.i.i.i.i.i, %for.body.i.i.i.i.i ], [ %21, %_ZN18OpenImageIO_v2_6_014ParamValueListD2Ev.exit.i ]
  call void @_ZNSt7__cxx1112basic_stringIcSt11char_traitsIcESaIcEED1Ev(ptr noundef nonnull align 8 dereferenceable(32) %__first.addr.04.i.i.i.i.i) #26
  %incdec.ptr.i.i.i.i.i = getelementptr inbounds i8, ptr %__first.addr.04.i.i.i.i.i, i64 32
  %cmp.not.i.i.i.i.i = icmp eq ptr %incdec.ptr.i.i.i.i.i, %22
  br i1 %cmp.not.i.i.i.i.i, label %invoke.contthread-pre-split.i.i, label %for.body.i.i.i.i.i, !llvm.loop !6

invoke.contthread-pre-split.i.i:                  ; preds = %for.body.i.i.i.i.i
  %.pr.i.i = load ptr, ptr %channelnames.i, align 8
  br label %invoke.cont.i.i

invoke.cont.i.i:                                  ; preds = %invoke.contthread-pre-split.i.i, %_ZN18OpenImageIO_v2_6_014ParamValueListD2Ev.exit.i
  %23 = phi ptr [ %.pr.i.i, %invoke.contthread-pre-split.i.i ], [ %21, %_ZN18OpenImageIO_v2_6_014ParamValueListD2Ev.exit.i ]
  %tobool.not.i.i.i.i = icmp eq ptr %23, null
  br i1 %tobool.not.i.i.i.i, label %_ZNSt6vectorINSt7__cxx1112basic_stringIcSt11char_traitsIcESaIcEEESaIS5_EED2Ev.exit.i, label %if.then.i.i.i.i

if.then.i.i.i.i:                                  ; preds = %invoke.cont.i.i
  call void @_ZdlPv(ptr noundef nonnull %23) #27
  br label %_ZNSt6vectorINSt7__cxx1112basic_stringIcSt11char_traitsIcESaIcEEESaIS5_EED2Ev.exit.i

_ZNSt6vectorINSt7__cxx1112basic_stringIcSt11char_traitsIcESaIcEEESaIS5_EED2Ev.exit.i: ; preds = %if.then.i.i.i.i, %invoke.cont.i.i
  %channelformats.i = getelementptr inbounds i8, ptr %spec, i64 72
  %24 = load ptr, ptr %channelformats.i, align 8
  %tobool.not.i.i.i2.i = icmp eq ptr %24, null
  br i1 %tobool.not.i.i.i2.i, label %_ZN18OpenImageIO_v2_6_09ImageSpecD2Ev.exit, label %if.then.i.i.i3.i

if.then.i.i.i3.i:                                 ; preds = %_ZNSt6vectorINSt7__cxx1112basic_stringIcSt11char_traitsIcESaIcEEESaIS5_EED2Ev.exit.i
  call void @_ZdlPv(ptr noundef nonnull %24) #27
  br label %_ZN18OpenImageIO_v2_6_09ImageSpecD2Ev.exit

_ZN18OpenImageIO_v2_6_09ImageSpecD2Ev.exit:       ; preds = %_ZNSt6vectorINSt7__cxx1112basic_stringIcSt11char_traitsIcESaIcEEESaIS5_EED2Ev.exit.i, %if.then.i.i.i3.i
  ret i1 %retval.0
}